target datalayout = "e-m:e-p270:32:32-p271:32:32-p272:64:64-i64:64-i128:128-f80:128-n8:16:32:64-S128"
target triple = "x86_64-pc-linux-gnu"

%class.btVector3 = type { [4 x float] }
%class.btCollisionObject = type <{ ptr, %class.btTransform, %class.btTransform, %class.btVector3, %class.btVector3, %class.btVector3, i32, float, ptr, ptr, ptr, ptr, i32, i32, i32, i32, i32, float, float, float, float, float, float, float, i32, [4 x i8], ptr, i32, i32, i32, float, float, float, i32, [4 x i8], %class.btAlignedObjectArray.0, i32, %class.btVector3, [4 x i8] }>
%class.btTransform = type { %class.btMatrix3x3, %class.btVector3 }
%class.btMatrix3x3 = type { [3 x %class.btVector3] }
%class.btAlignedObjectArray.0 = type <{ [4 x i8], i32, i32, [4 x i8], ptr, i8, [7 x i8] }>

; Function Attrs: inlinehint mustprogress nounwind uwtable
define linkonce_odr dso_local noundef zeroext i1 @_ZNK17btCollisionObject25isStaticOrKinematicObjectEv(ptr noundef nonnull align 8 dereferenceable(372) %0) #3 comdat align 2 {
  %2 = alloca ptr, align 8
  store ptr %0, ptr %2, align 8, !tbaa !51
  %3 = load ptr, ptr %2, align 8
  %4 = getelementptr inbounds nuw %class.btCollisionObject, ptr %3, i32 0, i32 12
  %5 = load i32, ptr %4, align 8, !tbaa !118
  %6 = and i32 %5, 3
  %7 = icmp ne i32 %6, 0
  ret i1 %7
}

; Function Attrs: inlinehint mustprogress nounwind uwtable
define linkonce_odr dso_local noundef zeroext i1 @_ZNK17btCollisionObject18hasContactResponseEv(ptr noundef nonnull align 8 dereferenceable(372) %0) #3 comdat align 2 {
  %2 = alloca ptr, align 8
  store ptr %0, ptr %2, align 8, !tbaa !51
  %3 = load ptr, ptr %2, align 8
  %4 = getelementptr inbounds nuw %class.btCollisionObject, ptr %3, i32 0, i32 12
  %5 = load i32, ptr %4, align 8, !tbaa !118
  %6 = and i32 %5, 4
  %7 = icmp eq i32 %6, 0
  ret i1 %7
}

; Function Attrs: mustprogress uwtable
define dso_local noundef zeroext i1 @_ZN21btCollisionDispatcher13needsResponseEPK17btCollisionObjectS2_(ptr noundef nonnull align 8 dereferenceable(20816) %0, ptr noundef %1, ptr noundef %2) unnamed_addr #2 align 2 {
  %4 = alloca ptr, align 8
  %5 = alloca ptr, align 8
  %6 = alloca ptr, align 8
  %7 = alloca i8, align 1
  store ptr %0, ptr %4, align 8, !tbaa !12
  store ptr %1, ptr %5, align 8, !tbaa !51
  store ptr %2, ptr %6, align 8, !tbaa !51
  call void @llvm.lifetime.start.p0(i64 1, ptr %7) #11
  %8 = load ptr, ptr %5, align 8, !tbaa !51
  %9 = call noundef zeroext i1 @_ZNK17btCollisionObject18hasContactResponseEv(ptr noundef nonnull align 8 dereferenceable(372) %8)
  br i1 %9, label %10, label %13

10:                                               ; preds = %3
  %11 = load ptr, ptr %6, align 8, !tbaa !51
  %12 = call noundef zeroext i1 @_ZNK17btCollisionObject18hasContactResponseEv(ptr noundef nonnull align 8 dereferenceable(372) %11)
  br label %13

13:                                               ; preds = %10, %3
  %14 = phi i1 [ false, %3 ], [ %12, %10 ]
  %15 = zext i1 %14 to i8
  store i8 %15, ptr %7, align 1, !tbaa !115
  %16 = load i8, ptr %7, align 1, !tbaa !115, !range !116, !noundef !117
  %17 = trunc i8 %16 to i1
  br i1 %17, label %18, label %27

18:                                               ; preds = %13
  %19 = load ptr, ptr %5, align 8, !tbaa !51
  %20 = call noundef zeroext i1 @_ZNK17btCollisionObject25isStaticOrKinematicObjectEv(ptr noundef nonnull align 8 dereferenceable(372) %19)
  br i1 %20, label %21, label %25

21:                                               ; preds = %18
  %22 = load ptr, ptr %6, align 8, !tbaa !51
  %23 = call noundef zeroext i1 @_ZNK17btCollisionObject25isStaticOrKinematicObjectEv(ptr noundef nonnull align 8 dereferenceable(372) %22)
  %24 = xor i1 %23, true
  br label %25

25:                                               ; preds = %21, %18
  %26 = phi i1 [ true, %18 ], [ %24, %21 ]
  br label %27

27:                                               ; preds = %25, %13
  %28 = phi i1 [ false, %13 ], [ %26, %25 ]
  %29 = zext i1 %28 to i8
  store i8 %29, ptr %7, align 1, !tbaa !115
  %30 = load i8, ptr %7, align 1, !tbaa !115, !range !116, !noundef !117
  %31 = trunc i8 %30 to i1
  call void @llvm.lifetime.end.p0(i64 1, ptr %7) #11
  ret i1 %31
}