; Function Attrs: mustprogress nofree norecurse nosync nounwind willreturn memory(argmem: read) uwtable
define dso_local noundef zeroext i1 @_ZN21btCollisionDispatcher13needsResponseEPK17btCollisionObjectS2_(ptr nonnull readnone align 8 captures(none) %0, ptr noundef readonly captures(none) %1, ptr noundef readonly captures(none) %2) unnamed_addr #7 align 2 {
  %4 = getelementptr inbounds nuw i8, ptr %1, i64 224
  %5 = load i32, ptr %4, align 8, !tbaa !99
  %6 = and i32 %5, 4
  %7 = icmp eq i32 %6, 0
  br i1 %7, label %8, label %.critedge

8:                                                ; preds = %3
  %9 = getelementptr inbounds nuw i8, ptr %2, i64 224
  %10 = load i32, ptr %9, align 8, !tbaa !99
  %11 = and i32 %10, 4
  %12 = icmp eq i32 %11, 0
  br i1 %12, label %13, label %.critedge

13:                                               ; preds = %8
  %14 = and i32 %5, 3
  %.not = icmp eq i32 %14, 0
  br i1 %.not, label %.critedge, label %15

15:                                               ; preds = %13
  %16 = and i32 %10, 3
  %.not5 = icmp eq i32 %16, 0
  br label %.critedge

.critedge:                                        ; preds = %3, %13, %15, %8
  %17 = phi i1 [ false, %8 ], [ true, %13 ], [ %.not5, %15 ], [ false, %3 ]
  ret i1 %17
}